; Function Attrs: mustprogress uwtable
define noundef i32 @_ZN8proxygen11HTTP1xCodec15onHeaderFieldCBEPNS_11http_parserEPKcm(ptr nocapture noundef readonly %parser, ptr noundef %buf, i64 noundef %len) #3 align 2 personality ptr @__gxx_personality_v0 {
entry:
  %data = getelementptr inbounds i8, ptr %parser, i64 24
  %0 = load ptr, ptr %data, align 8
  %call25 = invoke noundef i32 @_ZN8proxygen11HTTP1xCodec13onHeaderFieldEPKcm(ptr noundef nonnull align 8 dereferenceable(428) %0, ptr noundef %buf, i64 noundef %len)
          to label %return unwind label %lpad23, !range !4

lpad23:                                           ; preds = %entry
  %1 = landingpad { ptr, i32 }
          catch ptr @_ZTISt9exception
  %2 = extractvalue { ptr, i32 } %1, 1
  %3 = tail call i32 @llvm.eh.typeid.for(ptr nonnull @_ZTISt9exception) #25
  %matches = icmp eq i32 %2, %3
  br i1 %matches, label %catch, label %eh.resume

catch:                                            ; preds = %lpad23
  %4 = extractvalue { ptr, i32 } %1, 0
  %5 = tail call ptr @__cxa_begin_catch(ptr %4) #25
  %vtable = load ptr, ptr %5, align 8
  %vfn = getelementptr inbounds i8, ptr %vtable, i64 16
  %6 = load ptr, ptr %vfn, align 8
  %call26 = tail call noundef ptr %6(ptr noundef nonnull align 8 dereferenceable(8) %5) #25
  invoke void @_ZN8proxygen11HTTP1xCodec13onParserErrorEPKc(ptr noundef nonnull align 8 dereferenceable(428) %0, ptr noundef %call26)
          to label %invoke.cont28 unwind label %lpad27

invoke.cont28:                                    ; preds = %catch
  tail call void @__cxa_end_catch()
  br label %return

lpad27:                                           ; preds = %catch
  %7 = landingpad { ptr, i32 }
          cleanup
  invoke void @__cxa_end_catch()
          to label %eh.resume unwind label %terminate.lpad

return:                                           ; preds = %entry, %invoke.cont28
  %retval.0 = phi i32 [ 1, %invoke.cont28 ], [ %call25, %entry ]
  ret i32 %retval.0

eh.resume:                                        ; preds = %lpad27, %lpad23
  %lpad.val32.merged = phi { ptr, i32 } [ %7, %lpad27 ], [ %1, %lpad23 ]
  resume { ptr, i32 } %lpad.val32.merged

terminate.lpad:                                   ; preds = %lpad27
  %8 = landingpad { ptr, i32 }
          catch ptr null
  %9 = extractvalue { ptr, i32 } %8, 0
  tail call void @__clang_call_terminate(ptr %9) #26
  unreachable
}